target datalayout = "e-m:e-p270:32:32-p271:32:32-p272:64:64-i64:64-i128:128-f80:128-n8:16:32:64-S128"
target triple = "x86_64-pc-linux-gnu"

%struct.bitstream = type { i64, i64, ptr, ptr, ptr }

; Function Attrs: nounwind uwtable
define internal void @stream_write_word(ptr noundef %0, i64 noundef %1) #0 {
  %3 = alloca ptr, align 8
  %4 = alloca i64, align 8
  store ptr %0, ptr %3, align 8
  store i64 %1, ptr %4, align 8
  %5 = load i64, ptr %4, align 8
  %6 = load ptr, ptr %3, align 8
  %7 = getelementptr inbounds %struct.bitstream, ptr %6, i32 0, i32 2
  %8 = load ptr, ptr %7, align 8
  %9 = getelementptr inbounds i64, ptr %8, i32 1
  store ptr %9, ptr %7, align 8
  store i64 %5, ptr %8, align 8
  ret void
}

; Function Attrs: nounwind uwtable
define internal i64 @stream_read_word(ptr noundef %0) #0 {
  %2 = alloca ptr, align 8
  %3 = alloca i64, align 8
  store ptr %0, ptr %2, align 8
  %4 = load ptr, ptr %2, align 8
  %5 = getelementptr inbounds %struct.bitstream, ptr %4, i32 0, i32 2
  %6 = load ptr, ptr %5, align 8
  %7 = getelementptr inbounds i64, ptr %6, i32 1
  store ptr %7, ptr %5, align 8
  %8 = load i64, ptr %6, align 8
  store i64 %8, ptr %3, align 8
  %9 = load i64, ptr %3, align 8
  ret i64 %9
}

; Function Attrs: nounwind uwtable
define i64 @stream_write_bits(ptr noundef %0, i64 noundef %1, i64 noundef %2) #0 {
  %4 = alloca ptr, align 8
  %5 = alloca i64, align 8
  %6 = alloca i64, align 8
  store ptr %0, ptr %4, align 8
  store i64 %1, ptr %5, align 8
  store i64 %2, ptr %6, align 8
  %7 = load i64, ptr %5, align 8
  %8 = load ptr, ptr %4, align 8
  %9 = getelementptr inbounds %struct.bitstream, ptr %8, i32 0, i32 0
  %10 = load i64, ptr %9, align 8
  %11 = shl i64 %7, %10
  %12 = load ptr, ptr %4, align 8
  %13 = getelementptr inbounds %struct.bitstream, ptr %12, i32 0, i32 1
  %14 = load i64, ptr %13, align 8
  %15 = add i64 %14, %11
  store i64 %15, ptr %13, align 8
  %16 = load i64, ptr %6, align 8
  %17 = load ptr, ptr %4, align 8
  %18 = getelementptr inbounds %struct.bitstream, ptr %17, i32 0, i32 0
  %19 = load i64, ptr %18, align 8
  %20 = add i64 %19, %16
  store i64 %20, ptr %18, align 8
  %21 = load ptr, ptr %4, align 8
  %22 = getelementptr inbounds %struct.bitstream, ptr %21, i32 0, i32 0
  %23 = load i64, ptr %22, align 8
  %24 = icmp uge i64 %23, 64
  br i1 %24, label %25, label %49

25:                                               ; preds = %3
  %26 = load i64, ptr %5, align 8
  %27 = lshr i64 %26, 1
  store i64 %27, ptr %5, align 8
  %28 = load i64, ptr %6, align 8
  %29 = add i64 %28, -1
  store i64 %29, ptr %6, align 8
  br label %30

30:                                               ; preds = %25
  %31 = load ptr, ptr %4, align 8
  %32 = getelementptr inbounds %struct.bitstream, ptr %31, i32 0, i32 0
  %33 = load i64, ptr %32, align 8
  %34 = sub i64 %33, 64
  store i64 %34, ptr %32, align 8
  %35 = load ptr, ptr %4, align 8
  %36 = load ptr, ptr %4, align 8
  %37 = getelementptr inbounds %struct.bitstream, ptr %36, i32 0, i32 1
  %38 = load i64, ptr %37, align 8
  call void @stream_write_word(ptr noundef %35, i64 noundef %38)
  %39 = load i64, ptr %5, align 8
  %40 = load i64, ptr %6, align 8
  %41 = load ptr, ptr %4, align 8
  %42 = getelementptr inbounds %struct.bitstream, ptr %41, i32 0, i32 0
  %43 = load i64, ptr %42, align 8
  %44 = sub i64 %40, %43
  %45 = lshr i64 %39, %44
  %46 = load ptr, ptr %4, align 8
  %47 = getelementptr inbounds %struct.bitstream, ptr %46, i32 0, i32 1
  store i64 %45, ptr %47, align 8
  br label %48

48:                                               ; preds = %30
  br label %49

49:                                               ; preds = %48, %3
  %50 = load ptr, ptr %4, align 8
  %51 = getelementptr inbounds %struct.bitstream, ptr %50, i32 0, i32 0
  %52 = load i64, ptr %51, align 8
  %53 = shl i64 1, %52
  %54 = sub i64 %53, 1
  %55 = load ptr, ptr %4, align 8
  %56 = getelementptr inbounds %struct.bitstream, ptr %55, i32 0, i32 1
  %57 = load i64, ptr %56, align 8
  %58 = and i64 %57, %54
  store i64 %58, ptr %56, align 8
  %59 = load i64, ptr %5, align 8
  %60 = load i64, ptr %6, align 8
  %61 = lshr i64 %59, %60
  ret i64 %61
}

; Function Attrs: nounwind uwtable
define i64 @stream_read_bits(ptr noundef %0, i64 noundef %1) #0 {
  %3 = alloca ptr, align 8
  %4 = alloca i64, align 8
  %5 = alloca i64, align 8
  store ptr %0, ptr %3, align 8
  store i64 %1, ptr %4, align 8
  %6 = load ptr, ptr %3, align 8
  %7 = getelementptr inbounds %struct.bitstream, ptr %6, i32 0, i32 1
  %8 = load i64, ptr %7, align 8
  store i64 %8, ptr %5, align 8
  %9 = load ptr, ptr %3, align 8
  %10 = getelementptr inbounds %struct.bitstream, ptr %9, i32 0, i32 0
  %11 = load i64, ptr %10, align 8
  %12 = load i64, ptr %4, align 8
  %13 = icmp ult i64 %11, %12
  br i1 %13, label %14, label %62

14:                                               ; preds = %2
  br label %15

15:                                               ; preds = %14
  %16 = load ptr, ptr %3, align 8
  %17 = call i64 @stream_read_word(ptr noundef %16)
  %18 = load ptr, ptr %3, align 8
  %19 = getelementptr inbounds %struct.bitstream, ptr %18, i32 0, i32 1
  store i64 %17, ptr %19, align 8
  %20 = load ptr, ptr %3, align 8
  %21 = getelementptr inbounds %struct.bitstream, ptr %20, i32 0, i32 1
  %22 = load i64, ptr %21, align 8
  %23 = load ptr, ptr %3, align 8
  %24 = getelementptr inbounds %struct.bitstream, ptr %23, i32 0, i32 0
  %25 = load i64, ptr %24, align 8
  %26 = shl i64 %22, %25
  %27 = load i64, ptr %5, align 8
  %28 = add i64 %27, %26
  store i64 %28, ptr %5, align 8
  %29 = load ptr, ptr %3, align 8
  %30 = getelementptr inbounds %struct.bitstream, ptr %29, i32 0, i32 0
  %31 = load i64, ptr %30, align 8
  %32 = add i64 %31, 64
  store i64 %32, ptr %30, align 8
  br label %33

33:                                               ; preds = %15
  %34 = load i64, ptr %4, align 8
  %35 = load ptr, ptr %3, align 8
  %36 = getelementptr inbounds %struct.bitstream, ptr %35, i32 0, i32 0
  %37 = load i64, ptr %36, align 8
  %38 = sub i64 %37, %34
  store i64 %38, ptr %36, align 8
  %39 = load ptr, ptr %3, align 8
  %40 = getelementptr inbounds %struct.bitstream, ptr %39, i32 0, i32 0
  %41 = load i64, ptr %40, align 8
  %42 = icmp ne i64 %41, 0
  br i1 %42, label %46, label %43

43:                                               ; preds = %33
  %44 = load ptr, ptr %3, align 8
  %45 = getelementptr inbounds %struct.bitstream, ptr %44, i32 0, i32 1
  store i64 0, ptr %45, align 8
  br label %61

46:                                               ; preds = %33
  %47 = load ptr, ptr %3, align 8
  %48 = getelementptr inbounds %struct.bitstream, ptr %47, i32 0, i32 0
  %49 = load i64, ptr %48, align 8
  %50 = sub i64 64, %49
  %51 = load ptr, ptr %3, align 8
  %52 = getelementptr inbounds %struct.bitstream, ptr %51, i32 0, i32 1
  %53 = load i64, ptr %52, align 8
  %54 = lshr i64 %53, %50
  store i64 %54, ptr %52, align 8
  %55 = load i64, ptr %4, align 8
  %56 = sub i64 %55, 1
  %57 = shl i64 2, %56
  %58 = sub i64 %57, 1
  %59 = load i64, ptr %5, align 8
  %60 = and i64 %59, %58
  store i64 %60, ptr %5, align 8
  br label %61

61:                                               ; preds = %46, %43
  br label %78

62:                                               ; preds = %2
  %63 = load i64, ptr %4, align 8
  %64 = load ptr, ptr %3, align 8
  %65 = getelementptr inbounds %struct.bitstream, ptr %64, i32 0, i32 0
  %66 = load i64, ptr %65, align 8
  %67 = sub i64 %66, %63
  store i64 %67, ptr %65, align 8
  %68 = load i64, ptr %4, align 8
  %69 = load ptr, ptr %3, align 8
  %70 = getelementptr inbounds %struct.bitstream, ptr %69, i32 0, i32 1
  %71 = load i64, ptr %70, align 8
  %72 = lshr i64 %71, %68
  store i64 %72, ptr %70, align 8
  %73 = load i64, ptr %4, align 8
  %74 = shl i64 1, %73
  %75 = sub i64 %74, 1
  %76 = load i64, ptr %5, align 8
  %77 = and i64 %76, %75
  store i64 %77, ptr %5, align 8
  br label %78

78:                                               ; preds = %62, %61
  %79 = load i64, ptr %5, align 8
  ret i64 %79
}

; Function Attrs: nounwind uwtable
define void @stream_copy(ptr noundef %0, ptr noundef %1, i64 noundef %2) #0 {
  %4 = alloca ptr, align 8
  %5 = alloca ptr, align 8
  %6 = alloca i64, align 8
  %7 = alloca i64, align 8
  %8 = alloca i64, align 8
  store ptr %0, ptr %4, align 8
  store ptr %1, ptr %5, align 8
  store i64 %2, ptr %6, align 8
  br label %9

9:                                                ; preds = %12, %3
  %10 = load i64, ptr %6, align 8
  %11 = icmp ugt i64 %10, 64
  br i1 %11, label %12, label %20

12:                                               ; preds = %9
  %13 = load ptr, ptr %5, align 8
  %14 = call i64 @stream_read_bits(ptr noundef %13, i64 noundef 64)
  store i64 %14, ptr %7, align 8
  %15 = load ptr, ptr %4, align 8
  %16 = load i64, ptr %7, align 8
  %17 = call i64 @stream_write_bits(ptr noundef %15, i64 noundef %16, i64 noundef 64)
  %18 = load i64, ptr %6, align 8
  %19 = sub i64 %18, 64
  store i64 %19, ptr %6, align 8
  br label %9

20:                                               ; preds = %9
  %21 = load i64, ptr %6, align 8
  %22 = icmp ne i64 %21, 0
  br i1 %22, label %23, label %31

23:                                               ; preds = %20
  %24 = load ptr, ptr %5, align 8
  %25 = load i64, ptr %6, align 8
  %26 = call i64 @stream_read_bits(ptr noundef %24, i64 noundef %25)
  store i64 %26, ptr %8, align 8
  %27 = load ptr, ptr %4, align 8
  %28 = load i64, ptr %8, align 8
  %29 = load i64, ptr %6, align 8
  %30 = call i64 @stream_write_bits(ptr noundef %27, i64 noundef %28, i64 noundef %29)
  br label %31

31:                                               ; preds = %23, %20
  ret void
}