; Function Attrs: nofree norecurse nosync nounwind memory(readwrite, inaccessiblemem: none) uwtable
define void @stream_copy(ptr noundef captures(none) %0, ptr noundef captures(none) %1, i64 noundef %2) local_unnamed_addr #6 {
  %4 = icmp ugt i64 %2, 64
  br i1 %4, label %.lr.ph, label %._crit_edge

.lr.ph:                                           ; preds = %3
  %5 = getelementptr inbounds nuw i8, ptr %1, i64 8
  %6 = getelementptr inbounds nuw i8, ptr %1, i64 16
  %7 = getelementptr inbounds nuw i8, ptr %0, i64 8
  %8 = getelementptr inbounds nuw i8, ptr %0, i64 16
  br label %9

9:                                                ; preds = %.lr.ph, %stream_write_bits.exit
  %.019 = phi i64 [ %2, %.lr.ph ], [ %42, %stream_write_bits.exit ]
  %10 = load i64, ptr %1, align 8
  %11 = icmp ult i64 %10, 64
  br i1 %11, label %12, label %23

12:                                               ; preds = %9
  %13 = load i64, ptr %5, align 8
  %14 = load ptr, ptr %6, align 8
  %15 = getelementptr inbounds nuw i8, ptr %14, i64 8
  store ptr %15, ptr %6, align 8
  %16 = load i64, ptr %14, align 8
  %17 = shl i64 %16, %10
  %18 = add i64 %17, %13
  %.not.i = icmp eq i64 %10, 0
  br i1 %.not.i, label %19, label %20

19:                                               ; preds = %12
  store i64 0, ptr %5, align 8
  br label %stream_read_bits.exit

20:                                               ; preds = %12
  %21 = sub nuw nsw i64 64, %10
  %22 = lshr i64 %16, %21
  store i64 %22, ptr %5, align 8
  br label %stream_read_bits.exit

23:                                               ; preds = %9
  %24 = add i64 %10, -64
  store i64 %24, ptr %1, align 8
  br label %stream_read_bits.exit

stream_read_bits.exit:                            ; preds = %19, %20, %23
  %.0.i = phi i64 [ %18, %20 ], [ %18, %19 ], [ poison, %23 ]
  %25 = load i64, ptr %0, align 8
  %26 = shl i64 %.0.i, %25
  %27 = load i64, ptr %7, align 8
  %28 = add i64 %27, %26
  %29 = add i64 %25, 64
  store i64 %29, ptr %0, align 8
  %30 = icmp ult i64 %25, -64
  br i1 %30, label %31, label %stream_write_bits.exit

31:                                               ; preds = %stream_read_bits.exit
  %32 = lshr i64 %.0.i, 1
  store i64 %25, ptr %0, align 8
  %33 = load ptr, ptr %8, align 8
  %34 = getelementptr inbounds nuw i8, ptr %33, i64 8
  store ptr %34, ptr %8, align 8
  store i64 %28, ptr %33, align 8
  %35 = load i64, ptr %0, align 8
  %36 = sub i64 63, %35
  %37 = lshr i64 %32, %36
  br label %stream_write_bits.exit

stream_write_bits.exit:                           ; preds = %stream_read_bits.exit, %31
  %38 = phi i64 [ %37, %31 ], [ %28, %stream_read_bits.exit ]
  %39 = phi i64 [ %35, %31 ], [ %29, %stream_read_bits.exit ]
  %notmask.i = shl nsw i64 -1, %39
  %40 = xor i64 %notmask.i, -1
  %41 = and i64 %38, %40
  store i64 %41, ptr %7, align 8
  %42 = add i64 %.019, -64
  %43 = icmp ugt i64 %42, 64
  br i1 %43, label %9, label %._crit_edge

._crit_edge:                                      ; preds = %stream_write_bits.exit, %3
  %.0.lcssa = phi i64 [ %2, %3 ], [ %42, %stream_write_bits.exit ]
  %.not = icmp eq i64 %.0.lcssa, 0
  br i1 %.not, label %92, label %44

44:                                               ; preds = %._crit_edge
  %45 = getelementptr inbounds nuw i8, ptr %1, i64 8
  %46 = load i64, ptr %45, align 8
  %47 = load i64, ptr %1, align 8
  %48 = icmp ult i64 %47, %.0.lcssa
  br i1 %48, label %49, label %66

49:                                               ; preds = %44
  %50 = getelementptr inbounds nuw i8, ptr %1, i64 16
  %51 = load ptr, ptr %50, align 8
  %52 = getelementptr inbounds nuw i8, ptr %51, i64 8
  store ptr %52, ptr %50, align 8
  %53 = load i64, ptr %51, align 8
  %54 = shl i64 %53, %47
  %55 = add i64 %54, %46
  %56 = add nuw nsw i64 %47, 64
  %57 = sub nuw nsw i64 %56, %.0.lcssa
  store i64 %57, ptr %1, align 8
  %.not.i13 = icmp eq i64 %56, %.0.lcssa
  br i1 %.not.i13, label %58, label %59

58:                                               ; preds = %49
  store i64 0, ptr %45, align 8
  br label %stream_read_bits.exit14

59:                                               ; preds = %49
  %60 = sub nsw i64 64, %57
  %61 = lshr i64 %53, %60
  store i64 %61, ptr %45, align 8
  %62 = add nsw i64 %.0.lcssa, -1
  %63 = shl i64 2, %62
  %64 = add i64 %63, -1
  %65 = and i64 %55, %64
  br label %stream_read_bits.exit14

66:                                               ; preds = %44
  %67 = sub nuw i64 %47, %.0.lcssa
  store i64 %67, ptr %1, align 8
  %68 = lshr i64 %46, %.0.lcssa
  store i64 %68, ptr %45, align 8
  %notmask.i11 = shl nsw i64 -1, %.0.lcssa
  %69 = xor i64 %notmask.i11, -1
  %70 = and i64 %46, %69
  br label %stream_read_bits.exit14

stream_read_bits.exit14:                          ; preds = %58, %59, %66
  %.0.i12 = phi i64 [ %65, %59 ], [ %55, %58 ], [ %70, %66 ]
  %71 = load i64, ptr %0, align 8
  %72 = shl i64 %.0.i12, %71
  %73 = getelementptr inbounds nuw i8, ptr %0, i64 8
  %74 = load i64, ptr %73, align 8
  %75 = add i64 %74, %72
  %76 = add i64 %71, %.0.lcssa
  store i64 %76, ptr %0, align 8
  %77 = icmp ugt i64 %76, 63
  br i1 %77, label %78, label %stream_write_bits.exit18

78:                                               ; preds = %stream_read_bits.exit14
  %79 = lshr i64 %.0.i12, 1
  %80 = add i64 %76, -64
  store i64 %80, ptr %0, align 8
  %81 = getelementptr inbounds nuw i8, ptr %0, i64 16
  %82 = load ptr, ptr %81, align 8
  %83 = getelementptr inbounds nuw i8, ptr %82, i64 8
  store ptr %83, ptr %81, align 8
  store i64 %75, ptr %82, align 8
  %84 = load i64, ptr %0, align 8
  %85 = xor i64 %84, -1
  %86 = add i64 %.0.lcssa, %85
  %87 = lshr i64 %79, %86
  br label %stream_write_bits.exit18

stream_write_bits.exit18:                         ; preds = %stream_read_bits.exit14, %78
  %88 = phi i64 [ %87, %78 ], [ %75, %stream_read_bits.exit14 ]
  %89 = phi i64 [ %84, %78 ], [ %76, %stream_read_bits.exit14 ]
  %notmask.i17 = shl nsw i64 -1, %89
  %90 = xor i64 %notmask.i17, -1
  %91 = and i64 %88, %90
  store i64 %91, ptr %73, align 8
  br label %92

92:                                               ; preds = %stream_write_bits.exit18, %._crit_edge
  ret void
}